ccopy_reg
_reconstructor
p0
(cnltk.classify.naivebayes
NaiveBayesClassifier
p1
c__builtin__
object
p2
Ntp3
Rp4
(dp5
S'_labels'
p6
(lp7
S'unrelated'
p8
aS'agree'
p9
aS'disagree'
p10
aS'discuss'
p11
aS'Stance'
p12
asS'_feature_probdist'
p13
(dp14
(g11
S'tot_matches'
p15
tp16
g0
(cnltk.probability
ELEProbDist
p17
g2
Ntp18
Rp19
(dp20
S'_gamma'
p21
F0.5
sS'_N'
p22
I114
sS'_freqdist'
p23
g0
(cnltk.probability
FreqDist
p24
c__builtin__
dict
p25
(dp26
I0
I2
sI1
I3
sI2
I3
sI3
I4
sI4
I3
sI5
I10
sI6
I6
sI7
I8
sI8
I3
sI9
I3
sI10
I8
sI11
I3
sI12
I2
sI13
I1
sI14
I3
sI15
I4
sI17
I5
sI18
I2
sI19
I3
sI20
I1
sI21
I3
sI22
I2
sI23
I3
sI25
I3
sI26
I2
sI27
I1
sI29
I3
sI31
I1
sI34
I1
sI35
I1
sI36
I1
sI38
I1
sI39
I1
sI40
I1
sI44
I1
sI45
I1
sI48
I1
sI50
I2
sI55
I1
sI60
I1
sI66
I1
sI70
I2
sI75
I1
sI76
I1
sI429
I1
stp27
Rp28
(dp29
g22
I114
sS'_max_cache'
p30
NsS'_item_cache'
p31
NsS'_Nr_cache'
p32
NsbsS'_bins'
p33
I78
sS'_divisor'
p34
F153.0
sbs(g8
S'verb_matches'
p35
tp36
g0
(g17
g2
Ntp37
Rp38
(dp39
g21
F0.5
sg22
I133
sg23
g0
(g24
g25
(dp40
I2
I1
sI3
I1
sI6
I1
sI7
I2
sI15
I5
sI16
I3
sI17
I1
sI19
I1
sI20
I1
sI21
I2
sI22
I3
sI23
I1
sI24
I2
sI25
I1
sI26
I3
sI27
I1
sI30
I1
sI31
I6
sI33
I6
sI34
I1
sI37
I1
sI38
I3
sI39
I3
sI41
I5
sI42
I2
sI43
I2
sI45
I3
sI48
I2
sI50
I3
sI51
I1
sI52
I2
sI53
I2
sI56
I2
sI57
I1
sI58
I1
sI59
I2
sI60
I3
sI62
I3
sI63
I2
sI64
I6
sI65
I1
sI66
I1
sI69
I1
sI70
I2
sI73
I2
sI77
I1
sI79
I1
sI80
I2
sI82
I2
sI83
I1
sI84
I2
sI86
I2
sI88
I1
sI89
I2
sI90
I2
sI95
I2
sI102
I1
sI104
I1
sI107
I1
sI112
I1
sI114
I1
sI121
I1
sI132
I1
sI133
I1
sI138
I1
sI141
I1
sI159
I1
sI169
I1
sI181
I2
sI216
I1
sI252
I1
stp41
Rp42
(dp43
g22
I133
sg30
Nsg31
Nsg32
Nsbsg33
I130
sg34
F198.0
sbs(g8
g15
tp44
g0
(g17
g2
Ntp45
Rp46
(dp47
g21
F0.5
sg22
I133
sg23
g0
(g24
g25
(dp48
I0
I35
sI1
I11
sI2
I3
sI3
I7
sI4
I4
sI5
I4
sI6
I7
sI7
I5
sI8
I8
sI9
I5
sI10
I1
sI11
I4
sI12
I4
sI13
I1
sI14
I3
sI15
I2
sI16
I2
sI17
I2
sI18
I2
sI20
I1
sI21
I1
sI22
I2
sI23
I1
sI24
I3
sI27
I1
sI29
I1
sI30
I2
sI38
I1
sI43
I1
sI44
I3
sI47
I1
sI48
I1
sI50
I1
sI62
I1
sI76
I1
sI85
I1
stp49
Rp50
(dp51
g22
I133
sg30
Nsg31
Nsg32
Nsbsg33
I78
sg34
F172.0
sbs(g10
S'noun_matches'
p52
tp53
g0
(g17
g2
Ntp54
Rp55
(dp56
g21
F0.5
sg22
I122
sg23
g0
(g24
g25
(dp57
I259
I1
sI5
I2
sI7
I1
sI267
I1
sI32
I2
sI47
I1
sI51
I1
sI56
I1
sI58
I2
sI59
I1
sI60
I1
sI61
I1
sI318
I2
sI63
I1
sI64
I1
sI65
I3
sI67
I1
sI68
I1
sI69
I2
sI70
I4
sI72
I1
sI76
I1
sI77
I1
sI80
I1
sI312
I1
sI83
I1
sI84
I1
sI85
I2
sI94
I1
sI95
I3
sI96
I1
sI98
I3
sI99
I1
sI102
I1
sI104
I2
sI107
I1
sI109
I1
sI110
I2
sI367
I1
sI112
I1
sI113
I2
sI114
I1
sI115
I2
sI116
I2
sI117
I1
sI118
I1
sI119
I2
sI120
I1
sI123
I1
sI124
I1
sI125
I1
sI129
I2
sI133
I1
sI144
I5
sI407
I1
sI152
I1
sI154
I4
sI163
I1
sI166
I1
sI167
I1
sI168
I1
sI171
I3
sI176
I1
sI180
I1
sI182
I3
sI628
I1
sI442
I2
sI443
I1
sI194
I2
sI201
I2
sI204
I2
sI206
I2
sI209
I3
sI466
I1
sI220
I1
sI236
I3
sI240
I1
sI251
I3
stp58
Rp59
(dp60
g22
I122
sg30
Nsg31
Nsg32
Nsbsg33
I214
sg34
F229.0
sbs(g10
S'words_matched'
p61
tp62
g0
(g17
g2
Ntp63
Rp64
(dp65
g21
F0.5
sg22
I122
sg23
g0
(g24
g25
(dp66
I0
I5
sI1
I12
sI2
I16
sI3
I18
sI4
I13
sI5
I17
sI6
I13
sI7
I8
sI8
I9
sI9
I4
sI10
I2
sI11
I3
sI12
I1
sI20
I1
stp67
Rp68
(dp69
g22
I122
sg30
Nsg31
Nsg32
Nsbsg33
I20
sg34
F132.0
sbs(g11
g52
tp70
g0
(g17
g2
Ntp71
Rp72
(dp73
g21
F0.5
sg22
I114
sg23
g0
(g24
g25
(dp74
I259
I1
sI5
I2
sI262
I1
sI7
I1
sI8
I2
sI521
I1
sI10
I1
sI13
I1
sI275
I1
sI278
I2
sI26
I1
sI285
I1
sI286
I1
sI32
I1
sI34
I2
sI291
I1
sI292
I1
sI37
I1
sI38
I1
sI43
I1
sI44
I1
sI1837
I1
sI46
I1
sI47
I2
sI48
I1
sI52
I1
sI310
I1
sI55
I1
sI57
I1
sI60
I1
sI66
I1
sI68
I1
sI69
I2
sI70
I1
sI71
I2
sI74
I1
sI75
I1
sI333
I1
sI78
I4
sI337
I1
sI82
I2
sI89
I1
sI90
I3
sI96
I1
sI98
I1
sI99
I1
sI100
I1
sI102
I1
sI103
I1
sI104
I1
sI107
I1
sI109
I2
sI113
I1
sI371
I1
sI116
I3
sI119
I1
sI120
I1
sI124
I1
sI125
I2
sI126
I1
sI127
I1
sI128
I1
sI129
I1
sI132
I1
sI134
I1
sI135
I2
sI137
I3
sI138
I1
sI140
I1
sI141
I1
sI145
I1
sI408
I1
sI154
I1
sI159
I2
sI161
I2
sI162
I1
sI173
I1
sI177
I1
sI191
I1
sI193
I1
sI202
I2
sI204
I1
sI206
I1
sI209
I1
sI476
I1
sI227
I1
sI228
I1
sI231
I1
sI381
I1
sI245
I1
sI254
I1
stp75
Rp76
(dp77
g22
I114
sg30
Nsg31
Nsg32
Nsbsg33
I214
sg34
F221.0
sbs(g11
g61
tp78
g0
(g17
g2
Ntp79
Rp80
(dp81
g21
F0.5
sg22
I114
sg23
g0
(g24
g25
(dp82
I0
I2
sI1
I9
sI2
I11
sI3
I26
sI4
I21
sI5
I11
sI6
I10
sI7
I5
sI8
I4
sI9
I5
sI10
I1
sI11
I5
sI12
I1
sI13
I2
sI14
I1
stp83
Rp84
(dp85
g22
I114
sg30
Nsg31
Nsg32
Nsbsg33
I20
sg34
F124.0
sbs(g11
g35
tp86
g0
(g17
g2
Ntp87
Rp88
(dp89
g21
F0.5
sg22
I114
sg23
g0
(g24
g25
(dp90
I1
I1
sI2
I2
sI3
I3
sI5
I1
sI10
I1
sI11
I1
sI13
I1
sI14
I2
sI16
I1
sI17
I2
sI19
I1
sI20
I2
sI22
I1
sI24
I2
sI25
I1
sI27
I2
sI28
I3
sI29
I2
sI30
I1
sI31
I4
sI33
I2
sI35
I1
sI36
I3
sI37
I4
sI38
I1
sI39
I1
sI40
I2
sI41
I2
sI42
I3
sI44
I2
sI45
I3
sI46
I1
sI47
I1
sI48
I1
sI50
I1
sI51
I1
sI52
I1
sI54
I2
sI56
I2
sI57
I2
sI59
I4
sI60
I3
sI61
I2
sI62
I2
sI63
I1
sI65
I2
sI78
I1
sI79
I2
sI81
I1
sI83
I1
sI88
I1
sI89
I1
sI90
I2
sI91
I1
sI93
I1
sI94
I1
sI95
I2
sI96
I1
sI97
I1
sI103
I1
sI104
I2
sI114
I1
sI119
I1
sI125
I1
sI134
I1
sI135
I1
sI138
I1
sI141
I1
sI153
I1
sI179
I1
sI228
I1
sI550
I1
stp91
Rp92
(dp93
g22
I114
sg30
Nsg31
Nsg32
Nsbsg33
I130
sg34
F179.0
sbs(g12
g35
tp94
g0
(g17
g2
Ntp95
Rp96
(dp97
g21
F0.5
sg22
I1
sg23
g0
(g24
g25
(dp98
I0
I1
stp99
Rp100
(dp101
g22
I1
sg30
Nsg31
Nsg32
Nsbsg33
I130
sg34
F66.0
sbs(g8
g52
tp102
g0
(g17
g2
Ntp103
Rp104
(dp105
g21
F0.5
sg22
I133
sg23
g0
(g24
g25
(dp106
I261
I1
sI7
I1
sI523
I1
sI13
I1
sI275
I1
sI277
I1
sI22
I1
sI26
I1
sI27
I2
sI285
I1
sI34
I1
sI36
I2
sI38
I1
sI51
I3
sI55
I2
sI57
I2
sI58
I3
sI63
I1
sI64
I2
sI267
I1
sI68
I1
sI71
I1
sI72
I1
sI73
I2
sI74
I1
sI79
I3
sI80
I2
sI83
I1
sI84
I1
sI85
I2
sI87
I1
sI88
I1
sI92
I5
sI93
I1
sI357
I1
sI97
I1
sI98
I2
sI292
I1
sI101
I2
sI102
I1
sI104
I1
sI105
I1
sI109
I1
sI111
I1
sI112
I1
sI113
I1
sI114
I1
sI115
I1
sI628
I1
sI117
I1
sI121
I1
sI124
I1
sI126
I3
sI383
I1
sI358
I1
sI132
I1
sI135
I2
sI136
I1
sI137
I4
sI138
I1
sI139
I1
sI140
I1
sI141
I1
sI400
I2
sI145
I1
sI147
I1
sI148
I1
sI151
I1
sI152
I1
sI154
I1
sI156
I1
sI159
I1
sI161
I1
sI165
I3
sI167
I1
sI169
I1
sI175
I1
sI177
I1
sI179
I3
sI181
I1
sI371
I1
sI443
I1
sI192
I1
sI195
I2
sI196
I1
sI197
I1
sI198
I1
sI199
I1
sI203
I1
sI206
I1
sI208
I2
sI213
I1
sI217
I1
sI219
I1
sI222
I2
sI228
I1
sI237
I1
sI242
I1
sI252
I1
stp107
Rp108
(dp109
g22
I133
sg30
Nsg31
Nsg32
Nsbsg33
I214
sg34
F240.0
sbs(g8
g61
tp110
g0
(g17
g2
Ntp111
Rp112
(dp113
g21
F0.5
sg22
I133
sg23
g0
(g24
g25
(dp114
I0
I35
sI1
I37
sI2
I33
sI3
I12
sI4
I5
sI5
I4
sI6
I1
sI7
I2
sI8
I2
sI9
I1
sI10
I1
stp115
Rp116
(dp117
g22
I133
sg30
Nsg31
Nsg32
Nsbsg33
I20
sg34
F143.0
sbs(g9
g52
tp118
g0
(g17
g2
Ntp119
Rp120
(dp121
g21
F0.5
sg22
I130
sg23
g0
(g24
g25
(dp122
I4
I1
sI5
I3
sI6
I1
sI8
I1
sI10
I2
sI267
I1
sI272
I2
sI22
I1
sI24
I1
sI282
I1
sI36
I1
sI40
I2
sI41
I2
sI44
I1
sI46
I2
sI49
I1
sI54
I2
sI55
I1
sI57
I1
sI60
I4
sI61
I1
sI318
I1
sI64
I2
sI68
I1
sI70
I2
sI292
I2
sI73
I2
sI75
I1
sI78
I1
sI82
I1
sI83
I2
sI84
I2
sI85
I1
sI88
I2
sI91
I3
sI92
I2
sI94
I1
sI613
I1
sI98
I1
sI99
I2
sI100
I1
sI101
I1
sI102
I2
sI103
I3
sI104
I1
sI105
I1
sI106
I2
sI107
I2
sI111
I1
sI112
I1
sI114
I1
sI115
I1
sI628
I1
sI117
I1
sI118
I2
sI119
I1
sI121
I1
sI123
I1
sI380
I2
sI125
I1
sI127
I1
sI130
I2
sI133
I1
sI135
I1
sI138
I1
sI395
I1
sI140
I1
sI398
I2
sI143
I4
sI151
I2
sI152
I1
sI157
I1
sI159
I1
sI161
I2
sI165
I1
sI166
I1
sI167
I1
sI170
I1
sI174
I1
sI182
I1
sI696
I2
sI185
I1
sI443
I1
sI197
I1
sI199
I1
sI209
I1
sI211
I2
sI217
I1
sI222
I2
sI236
I2
stp123
Rp124
(dp125
g22
I130
sg30
Nsg31
Nsg32
Nsbsg33
I214
sg34
F237.0
sbs(g9
g15
tp126
g0
(g17
g2
Ntp127
Rp128
(dp129
g21
F0.5
sg22
I130
sg23
g0
(g24
g25
(dp130
I0
I7
sI1
I10
sI2
I5
sI3
I9
sI4
I2
sI5
I5
sI6
I6
sI7
I1
sI8
I6
sI9
I5
sI10
I2
sI11
I3
sI12
I2
sI13
I3
sI14
I1
sI15
I2
sI16
I5
sI17
I3
sI18
I2
sI20
I4
sI21
I2
sI22
I2
sI24
I1
sI25
I2
sI27
I3
sI28
I2
sI29
I1
sI30
I2
sI31
I2
sI32
I1
sI35
I3
sI36
I2
sI37
I2
sI38
I1
sI39
I1
sI41
I1
sI43
I1
sI46
I2
sI50
I1
sI53
I1
sI54
I1
sI58
I1
sI60
I1
sI62
I1
sI64
I1
sI69
I1
sI208
I1
sI81
I1
sI163
I1
sI96
I1
sI166
I1
sI83
I1
sI120
I1
sI124
I1
stp131
Rp132
(dp133
g22
I130
sg30
Nsg31
Nsg32
Nsbsg33
I78
sg34
F169.0
sbs(g12
g15
tp134
g0
(g17
g2
Ntp135
Rp136
(dp137
g21
F0.5
sg22
I1
sg23
g0
(g24
g25
(dp138
I0
I1
stp139
Rp140
(dp141
g22
I1
sg30
Nsg31
Nsg32
Nsbsg33
I78
sg34
F40.0
sbs(g12
g61
tp142
g0
(g17
g2
Ntp143
Rp144
(dp145
g21
F0.5
sg22
I1
sg23
g0
(g24
g25
(dp146
I0
I1
stp147
Rp148
(dp149
g22
I1
sg30
Nsg31
Nsg32
Nsbsg33
I20
sg34
F11.0
sbs(g9
g35
tp150
g0
(g17
g2
Ntp151
Rp152
(dp153
g21
F0.5
sg22
I130
sg23
g0
(g24
g25
(dp154
I2
I3
sI3
I3
sI4
I2
sI7
I1
sI8
I1
sI13
I2
sI14
I1
sI15
I1
sI16
I3
sI17
I2
sI20
I3
sI23
I1
sI24
I3
sI25
I1
sI26
I1
sI27
I2
sI28
I2
sI29
I3
sI30
I2
sI31
I1
sI32
I2
sI34
I2
sI35
I1
sI36
I1
sI38
I1
sI39
I2
sI40
I2
sI41
I3
sI42
I2
sI44
I2
sI45
I1
sI46
I6
sI47
I1
sI48
I4
sI49
I1
sI50
I3
sI51
I1
sI52
I1
sI53
I3
sI54
I1
sI55
I1
sI56
I3
sI57
I1
sI58
I3
sI59
I1
sI60
I2
sI61
I2
sI64
I1
sI65
I2
sI67
I1
sI324
I2
sI70
I3
sI72
I1
sI73
I1
sI74
I1
sI76
I2
sI78
I2
sI82
I4
sI88
I2
sI89
I1
sI98
I2
sI106
I1
sI121
I1
sI130
I2
sI132
I1
sI139
I2
sI140
I1
sI152
I1
sI157
I2
sI159
I1
sI216
I1
sI217
I1
stp155
Rp156
(dp157
g22
I130
sg30
Nsg31
Nsg32
Nsbsg33
I130
sg34
F195.0
sbs(g10
g15
tp158
g0
(g17
g2
Ntp159
Rp160
(dp161
g21
F0.5
sg22
I122
sg23
g0
(g24
g25
(dp162
I0
I5
sI1
I4
sI2
I9
sI3
I2
sI4
I6
sI5
I2
sI6
I5
sI7
I2
sI8
I1
sI9
I7
sI10
I8
sI11
I3
sI12
I3
sI13
I5
sI14
I4
sI15
I2
sI16
I2
sI17
I3
sI18
I4
sI19
I4
sI21
I1
sI24
I5
sI25
I2
sI28
I2
sI29
I3
sI30
I1
sI31
I6
sI34
I1
sI37
I1
sI38
I1
sI42
I1
sI44
I1
sI47
I1
sI48
I2
sI51
I2
sI52
I1
sI53
I2
sI56
I1
sI57
I2
sI186
I1
sI60
I1
sI62
I2
sI112
I1
stp163
Rp164
(dp165
g22
I122
sg30
Nsg31
Nsg32
Nsbsg33
I78
sg34
F161.0
sbs(g10
g35
tp166
g0
(g17
g2
Ntp167
Rp168
(dp169
g21
F0.5
sg22
I122
sg23
g0
(g24
g25
(dp170
I3
I1
sI4
I1
sI5
I1
sI13
I4
sI216
I1
sI19
I2
sI20
I3
sI21
I2
sI22
I1
sI23
I1
sI24
I2
sI25
I6
sI26
I2
sI27
I3
sI28
I3
sI29
I3
sI31
I3
sI32
I3
sI33
I1
sI34
I1
sI35
I1
sI37
I1
sI40
I3
sI41
I4
sI42
I2
sI43
I2
sI45
I1
sI46
I2
sI47
I2
sI48
I2
sI49
I2
sI51
I1
sI180
I2
sI54
I1
sI55
I3
sI184
I1
sI58
I1
sI159
I1
sI60
I2
sI61
I2
sI62
I2
sI63
I1
sI64
I1
sI66
I2
sI68
I1
sI78
I1
sI79
I3
sI81
I1
sI83
I2
sI86
I3
sI87
I1
sI88
I2
sI95
I3
sI59
I1
sI101
I2
sI103
I3
sI106
I3
sI168
I1
sI115
I3
sI56
I4
sI121
I2
stp171
Rp172
(dp173
g22
I122
sg30
Nsg31
Nsg32
Nsbsg33
I130
sg34
F187.0
sbs(g12
g52
tp174
g0
(g17
g2
Ntp175
Rp176
(dp177
g21
F0.5
sg22
I1
sg23
g0
(g24
g25
(dp178
I1
I1
stp179
Rp180
(dp181
g22
I1
sg30
Nsg31
Nsg32
Nsbsg33
I214
sg34
F108.0
sbs(g9
g61
tp182
g0
(g17
g2
Ntp183
Rp184
(dp185
g21
F0.5
sg22
I130
sg23
g0
(g24
g25
(dp186
I0
I7
sI1
I13
sI2
I13
sI3
I17
sI4
I14
sI5
I17
sI6
I9
sI7
I7
sI8
I10
sI9
I4
sI10
I7
sI11
I3
sI12
I2
sI13
I2
sI14
I2
sI15
I1
sI17
I1
sI25
I1
stp187
Rp188
(dp189
g22
I130
sg30
Nsg31
Nsg32
Nsbsg33
I20
sg34
F140.0
sbssS'_label_probdist'
p190
g0
(g17
g2
Ntp191
Rp192
(dp193
g21
F0.5
sg22
I500
sg23
g0
(g24
g25
(dp194
g8
I133
sg10
I122
sg11
I114
sg12
I1
sg9
I130
stp195
Rp196
(dp197
g22
I500
sg30
Nsg31
(lp198
(g8
I133
tp199
a(g9
I130
tp200
a(g10
I122
tp201
a(g11
I114
tp202
a(g12
I1
tp203
asg32
Nsbsg33
I5
sg34
F502.5
sbsb.